target datalayout = "e-m:e-p270:32:32-p271:32:32-p272:64:64-i64:64-i128:128-f80:128-n8:16:32:64-S128"
target triple = "x86_64-pc-linux-gnu"

%struct.dt_introspection_t = type { i32, i32, ptr, i64, ptr, i64, i64, ptr }
%union.dt_introspection_field_t = type { %struct.dt_introspection_type_double_t }
%struct.dt_introspection_type_double_t = type { %struct.dt_introspection_type_header_t, double, double, double }
%struct.dt_introspection_type_header_t = type { i32, ptr, ptr, ptr, ptr, i64, i64, ptr }
%struct.dt_introspection_type_enum_t = type { %struct.dt_introspection_type_header_t, i64, ptr, i32 }
%struct.dt_introspection_type_struct_t = type { %struct.dt_introspection_type_header_t, i64, ptr }

@introspection = internal global %struct.dt_introspection_t { i32 8, i32 1, ptr @.str.81, i64 44, ptr getelementptr (i8, ptr @introspection_linear, i64 440), i64 1120, i64 688, ptr null }, align 8
@introspection_init.f5 = internal global [4 x ptr] [ptr @introspection_linear, ptr getelementptr (i8, ptr @introspection_linear, i64 88), ptr getelementptr (i8, ptr @introspection_linear, i64 352), ptr null], align 16

; Function Attrs: nounwind uwtable
define i32 @introspection_init(ptr noundef %0, i32 noundef %1) #0 {
  %3 = alloca i32, align 4
  %4 = alloca ptr, align 8
  %5 = alloca i32, align 4
  %6 = alloca i32, align 4
  store ptr %0, ptr %4, align 8, !tbaa !152
  store i32 %1, ptr %5, align 4, !tbaa !19
  %7 = load i32, ptr @introspection, align 8, !tbaa !253
  %8 = icmp ne i32 %7, 8
  br i1 %8, label %12, label %9

9:                                                ; preds = %2
  %10 = load i32, ptr %5, align 4, !tbaa !19
  %11 = icmp ne i32 %10, 8
  br i1 %11, label %12, label %13

12:                                               ; preds = %9, %2
  store i32 1, ptr %3, align 4
  br label %28

13:                                               ; preds = %9
  call void @llvm.lifetime.start.p0(i64 4, ptr %6) #13
  store i32 0, ptr %6, align 4, !tbaa !19
  br label %14

14:                                               ; preds = %24, %13
  %15 = load i32, ptr %6, align 4, !tbaa !19
  %16 = icmp sle i32 %15, 6
  br i1 %16, label %18, label %17

17:                                               ; preds = %14
  call void @llvm.lifetime.end.p0(i64 4, ptr %6) #13
  br label %27

18:                                               ; preds = %14
  %19 = load ptr, ptr %4, align 8, !tbaa !152
  %20 = load i32, ptr %6, align 4, !tbaa !19
  %21 = sext i32 %20 to i64
  %22 = getelementptr inbounds [7 x %union.dt_introspection_field_t], ptr @introspection_linear, i64 0, i64 %21
  %23 = getelementptr inbounds nuw %struct.dt_introspection_type_header_t, ptr %22, i32 0, i32 7
  store ptr %19, ptr %23, align 8, !tbaa !252
  br label %24

24:                                               ; preds = %18
  %25 = load i32, ptr %6, align 4, !tbaa !19
  %26 = add nsw i32 %25, 1
  store i32 %26, ptr %6, align 4, !tbaa !19
  br label %14

27:                                               ; preds = %17
  store ptr @introspection_init.f0, ptr getelementptr inbounds nuw (%struct.dt_introspection_type_enum_t, ptr @introspection_linear, i32 0, i32 2), align 8, !tbaa !252
  store ptr @introspection_init.f1, ptr getelementptr inbounds nuw (%struct.dt_introspection_type_enum_t, ptr getelementptr inbounds ([7 x %union.dt_introspection_field_t], ptr @introspection_linear, i64 0, i64 1), i32 0, i32 2), align 8, !tbaa !252
  store ptr @introspection_init.f5, ptr getelementptr inbounds nuw (%struct.dt_introspection_type_struct_t, ptr getelementptr inbounds ([7 x %union.dt_introspection_field_t], ptr @introspection_linear, i64 0, i64 5), i32 0, i32 2), align 8, !tbaa !252
  store i32 0, ptr %3, align 4
  br label %28

28:                                               ; preds = %27, %12
  %29 = load i32, ptr %3, align 4
  ret i32 %29
}