; Function Attrs: nofree norecurse nosync nounwind memory(readwrite, argmem: none, inaccessiblemem: none) uwtable
define range(i32 0, 2) i32 @introspection_init(ptr noundef %0, i32 noundef %1) local_unnamed_addr #18 {
  %3 = load i32, ptr @introspection, align 8, !tbaa !223
  %4 = icmp ne i32 %3, 8
  %5 = icmp ne i32 %1, 8
  %or.cond = or i1 %5, %4
  br i1 %or.cond, label %8, label %.preheader

6:                                                ; preds = %.preheader
  store ptr @introspection_init.f0, ptr getelementptr inbounds nuw (i8, ptr @introspection_linear, i64 72), align 8, !tbaa !211
  store ptr @introspection_init.f1, ptr getelementptr inbounds nuw (i8, ptr @introspection_linear, i64 160), align 16, !tbaa !211
  store ptr @introspection_init.f5, ptr getelementptr inbounds nuw (i8, ptr @introspection_linear, i64 512), align 16, !tbaa !211
  br label %8

.preheader:                                       ; preds = %2, %.preheader
  %indvars.iv = phi i64 [ %indvars.iv.next, %.preheader ], [ 0, %2 ]
  %7 = getelementptr inbounds nuw [7 x %union.dt_introspection_field_t], ptr @introspection_linear, i64 0, i64 %indvars.iv, i32 0, i32 0, i32 7
  store ptr %0, ptr %7, align 8, !tbaa !211
  %indvars.iv.next = add nuw nsw i64 %indvars.iv, 1
  %exitcond.not = icmp eq i64 %indvars.iv.next, 7
  br i1 %exitcond.not, label %6, label %.preheader

8:                                                ; preds = %2, %6
  %.06 = phi i32 [ 0, %6 ], [ 1, %2 ]
  ret i32 %.06
}